; ModuleID = '58/1166.c'
source_filename = "58/1166.c"
target datalayout = "e-m:e-p270:32:32-p271:32:32-p272:64:64-i64:64-f80:128-n8:16:32:64-S128"
target triple = "x86_64-pc-linux-gnu"

@.str = private unnamed_addr constant [4 x i8] c"%d\0A\00", align 1
@.str.1 = private unnamed_addr constant [3 x i8] c"1\0A\00", align 1
@.str.2 = private unnamed_addr constant [3 x i8] c"0\0A\00", align 1

; Function Attrs: noinline nounwind uwtable
define dso_local i32 @main(i32 %0, i8** %1) #0 {
  %3 = alloca i32, align 4
  %4 = alloca i32, align 4
  %5 = alloca i8**, align 8
  %6 = alloca i32, align 4
  %7 = alloca i32, align 4
  %8 = alloca i32, align 4
  %9 = alloca i32, align 4
  %10 = alloca [81 x i8], align 16
  store i32 0, i32* %3, align 4
  store i32 %0, i32* %4, align 4
  store i8** %1, i8*** %5, align 8
  %11 = call i32 (i8*, ...) @__isoc99_scanf(i8* getelementptr inbounds ([4 x i8], [4 x i8]* @.str, i64 0, i64 0), i32* %6)
  store i32 0, i32* %7, align 4
  br label %12

12:                                               ; preds = %114, %2
  %13 = load i32, i32* %7, align 4
  %14 = load i32, i32* %6, align 4
  %15 = icmp slt i32 %13, %14
  br i1 %15, label %16, label %117

16:                                               ; preds = %12
  store i32 0, i32* %9, align 4
  %17 = getelementptr inbounds [81 x i8], [81 x i8]* %10, i64 0, i64 0
  %18 = call i32 (i8*, ...) bitcast (i32 (...)* @gets to i32 (i8*, ...)*)(i8* %17)
  %19 = getelementptr inbounds [81 x i8], [81 x i8]* %10, i64 0, i64 0
  %20 = load i8, i8* %19, align 16
  %21 = sext i8 %20 to i32
  %22 = icmp eq i32 %21, 95
  br i1 %22, label %43, label %23

23:                                               ; preds = %16
  %24 = getelementptr inbounds [81 x i8], [81 x i8]* %10, i64 0, i64 0
  %25 = load i8, i8* %24, align 16
  %26 = sext i8 %25 to i32
  %27 = icmp sge i32 %26, 97
  br i1 %27, label %28, label %33

28:                                               ; preds = %23
  %29 = getelementptr inbounds [81 x i8], [81 x i8]* %10, i64 0, i64 0
  %30 = load i8, i8* %29, align 16
  %31 = sext i8 %30 to i32
  %32 = icmp sle i32 %31, 122
  br i1 %32, label %43, label %33

33:                                               ; preds = %28, %23
  %34 = getelementptr inbounds [81 x i8], [81 x i8]* %10, i64 0, i64 0
  %35 = load i8, i8* %34, align 16
  %36 = sext i8 %35 to i32
  %37 = icmp sge i32 %36, 65
  br i1 %37, label %38, label %105

38:                                               ; preds = %33
  %39 = getelementptr inbounds [81 x i8], [81 x i8]* %10, i64 0, i64 0
  %40 = load i8, i8* %39, align 16
  %41 = sext i8 %40 to i32
  %42 = icmp sle i32 %41, 90
  br i1 %42, label %43, label %105

43:                                               ; preds = %38, %28, %16
  store i32 0, i32* %8, align 4
  br label %44

44:                                               ; preds = %101, %43
  %45 = load i32, i32* %8, align 4
  %46 = sext i32 %45 to i64
  %47 = getelementptr inbounds [81 x i8], [81 x i8]* %10, i64 0, i64 %46
  %48 = load i8, i8* %47, align 1
  %49 = icmp ne i8 %48, 0
  br i1 %49, label %50, label %104

50:                                               ; preds = %44
  %51 = load i32, i32* %8, align 4
  %52 = sext i32 %51 to i64
  %53 = getelementptr inbounds [81 x i8], [81 x i8]* %10, i64 0, i64 %52
  %54 = load i8, i8* %53, align 1
  %55 = sext i8 %54 to i32
  %56 = icmp eq i32 %55, 95
  br i1 %56, label %99, label %57

57:                                               ; preds = %50
  %58 = load i32, i32* %8, align 4
  %59 = sext i32 %58 to i64
  %60 = getelementptr inbounds [81 x i8], [81 x i8]* %10, i64 0, i64 %59
  %61 = load i8, i8* %60, align 1
  %62 = sext i8 %61 to i32
  %63 = icmp sge i32 %62, 97
  br i1 %63, label %64, label %71

64:                                               ; preds = %57
  %65 = load i32, i32* %8, align 4
  %66 = sext i32 %65 to i64
  %67 = getelementptr inbounds [81 x i8], [81 x i8]* %10, i64 0, i64 %66
  %68 = load i8, i8* %67, align 1
  %69 = sext i8 %68 to i32
  %70 = icmp sle i32 %69, 122
  br i1 %70, label %99, label %71

71:                                               ; preds = %64, %57
  %72 = load i32, i32* %8, align 4
  %73 = sext i32 %72 to i64
  %74 = getelementptr inbounds [81 x i8], [81 x i8]* %10, i64 0, i64 %73
  %75 = load i8, i8* %74, align 1
  %76 = sext i8 %75 to i32
  %77 = icmp sge i32 %76, 65
  br i1 %77, label %78, label %85

78:                                               ; preds = %71
  %79 = load i32, i32* %8, align 4
  %80 = sext i32 %79 to i64
  %81 = getelementptr inbounds [81 x i8], [81 x i8]* %10, i64 0, i64 %80
  %82 = load i8, i8* %81, align 1
  %83 = sext i8 %82 to i32
  %84 = icmp sle i32 %83, 90
  br i1 %84, label %99, label %85

85:                                               ; preds = %78, %71
  %86 = load i32, i32* %8, align 4
  %87 = sext i32 %86 to i64
  %88 = getelementptr inbounds [81 x i8], [81 x i8]* %10, i64 0, i64 %87
  %89 = load i8, i8* %88, align 1
  %90 = sext i8 %89 to i32
  %91 = icmp sge i32 %90, 48
  br i1 %91, label %92, label %100

92:                                               ; preds = %85
  %93 = load i32, i32* %8, align 4
  %94 = sext i32 %93 to i64
  %95 = getelementptr inbounds [81 x i8], [81 x i8]* %10, i64 0, i64 %94
  %96 = load i8, i8* %95, align 1
  %97 = sext i8 %96 to i32
  %98 = icmp sle i32 %97, 57
  br i1 %98, label %99, label %100

99:                                               ; preds = %92, %78, %64, %50
  br label %101

100:                                              ; preds = %92, %85
  store i32 1, i32* %9, align 4
  br label %104

101:                                              ; preds = %99
  %102 = load i32, i32* %8, align 4
  %103 = add nsw i32 %102, 1
  store i32 %103, i32* %8, align 4
  br label %44

104:                                              ; preds = %100, %44
  br label %106

105:                                              ; preds = %38, %33
  store i32 1, i32* %9, align 4
  br label %106

106:                                              ; preds = %105, %104
  %107 = load i32, i32* %9, align 4
  %108 = icmp eq i32 %107, 0
  br i1 %108, label %109, label %111

109:                                              ; preds = %106
  %110 = call i32 (i8*, ...) @printf(i8* getelementptr inbounds ([3 x i8], [3 x i8]* @.str.1, i64 0, i64 0))
  br label %113

111:                                              ; preds = %106
  %112 = call i32 (i8*, ...) @printf(i8* getelementptr inbounds ([3 x i8], [3 x i8]* @.str.2, i64 0, i64 0))
  br label %113

113:                                              ; preds = %111, %109
  br label %114

114:                                              ; preds = %113
  %115 = load i32, i32* %7, align 4
  %116 = add nsw i32 %115, 1
  store i32 %116, i32* %7, align 4
  br label %12

117:                                              ; preds = %12
  ret i32 0
}

declare dso_local i32 @__isoc99_scanf(i8*, ...) #1

declare dso_local i32 @gets(...) #1

declare dso_local i32 @printf(i8*, ...) #1


!llvm.module.flags = !{!0}
!llvm.ident = !{!1}

!0 = !{i32 1, !"wchar_size", i32 4}
!1 = !{!"clang version 10.0.0-4ubuntu1 "}
